; ModuleID = 'source-C-CXX/55/1643.c'
source_filename = "source-C-CXX/55/1643.c"
target datalayout = "e-m:e-p270:32:32-p271:32:32-p272:64:64-i64:64-f80:128-n8:16:32:64-S128"
target triple = "x86_64-pc-linux-gnu"

@.str = private unnamed_addr constant [4 x i8] c"%ld\00", align 1
@.str.1 = private unnamed_addr constant [12 x i8] c"????,?????:\00", align 1
@.str.2 = private unnamed_addr constant [3 x i8] c"%d\00", align 1
@.str.3 = private unnamed_addr constant [12 x i8] c"%d%d%d%d%d\0A\00", align 1
@.str.4 = private unnamed_addr constant [10 x i8] c"%d%d%d%d\0A\00", align 1
@.str.5 = private unnamed_addr constant [8 x i8] c"%d%d%d\0A\00", align 1
@.str.6 = private unnamed_addr constant [6 x i8] c"%d%d\0A\00", align 1
@.str.7 = private unnamed_addr constant [4 x i8] c"%d\0A\00", align 1

; Function Attrs: nofree nounwind sspstrong uwtable
define dso_local void @main() local_unnamed_addr #0 {
  %1 = alloca i64, align 8
  %2 = bitcast i64* %1 to i8*
  call void @llvm.lifetime.start.p0i8(i64 8, i8* nonnull %2) #3
  %3 = call i32 (i8*, ...) @__isoc99_scanf(i8* getelementptr inbounds ([4 x i8], [4 x i8]* @.str, i64 0, i64 0), i64* nonnull %1)
  %4 = load i64, i64* %1, align 8, !tbaa !5
  %5 = icmp sgt i64 %4, 99999
  br i1 %5, label %6, label %11

6:                                                ; preds = %0, %6
  %7 = call i32 (i8*, ...) @printf(i8* nonnull dereferenceable(1) getelementptr inbounds ([12 x i8], [12 x i8]* @.str.1, i64 0, i64 0))
  %8 = call i32 (i8*, ...) @__isoc99_scanf(i8* getelementptr inbounds ([3 x i8], [3 x i8]* @.str.2, i64 0, i64 0), i64* nonnull %1)
  %9 = load i64, i64* %1, align 8, !tbaa !5
  %10 = icmp sgt i64 %9, 99999
  br i1 %10, label %6, label %11, !llvm.loop !9

11:                                               ; preds = %6, %0
  %12 = phi i64 [ %4, %0 ], [ %9, %6 ]
  %13 = sdiv i64 %12, 10000
  %14 = mul nsw i64 %13, -10000
  %15 = add i64 %14, %12
  %16 = sdiv i64 %15, 1000
  %17 = mul nsw i64 %16, -1000
  %18 = add i64 %17, %15
  %19 = sdiv i64 %18, 100
  %20 = mul nsw i64 %19, -100
  %21 = add i64 %20, %18
  %22 = sdiv i64 %21, 10
  %23 = mul nsw i64 %22, -10
  %24 = add i64 %23, %21
  %25 = add nsw i64 %12, 9999
  %26 = icmp ult i64 %25, 19999
  br i1 %26, label %29, label %27

27:                                               ; preds = %11
  %28 = call i32 (i8*, ...) @printf(i8* nonnull dereferenceable(1) getelementptr inbounds ([12 x i8], [12 x i8]* @.str.3, i64 0, i64 0), i64 %24, i64 %22, i64 %19, i64 %16, i64 %13)
  br label %46

29:                                               ; preds = %11
  %30 = add i64 %15, 999
  %31 = icmp ult i64 %30, 1999
  br i1 %31, label %34, label %32

32:                                               ; preds = %29
  %33 = call i32 (i8*, ...) @printf(i8* nonnull dereferenceable(1) getelementptr inbounds ([10 x i8], [10 x i8]* @.str.4, i64 0, i64 0), i64 %24, i64 %22, i64 %19, i64 %16)
  br label %46

34:                                               ; preds = %29
  %35 = add i64 %18, 99
  %36 = icmp ult i64 %35, 199
  br i1 %36, label %39, label %37

37:                                               ; preds = %34
  %38 = call i32 (i8*, ...) @printf(i8* nonnull dereferenceable(1) getelementptr inbounds ([8 x i8], [8 x i8]* @.str.5, i64 0, i64 0), i64 %24, i64 %22, i64 %19)
  br label %46

39:                                               ; preds = %34
  %40 = add i64 %21, 9
  %41 = icmp ult i64 %40, 19
  br i1 %41, label %44, label %42

42:                                               ; preds = %39
  %43 = call i32 (i8*, ...) @printf(i8* nonnull dereferenceable(1) getelementptr inbounds ([6 x i8], [6 x i8]* @.str.6, i64 0, i64 0), i64 %24, i64 %22)
  br label %46

44:                                               ; preds = %39
  %45 = call i32 (i8*, ...) @printf(i8* nonnull dereferenceable(1) getelementptr inbounds ([4 x i8], [4 x i8]* @.str.7, i64 0, i64 0), i64 %24)
  br label %46

46:                                               ; preds = %32, %42, %44, %37, %27
  call void @llvm.lifetime.end.p0i8(i64 8, i8* nonnull %2) #3
  ret void
}

; Function Attrs: argmemonly mustprogress nofree nosync nounwind willreturn
declare void @llvm.lifetime.start.p0i8(i64 immarg, i8* nocapture) #1

; Function Attrs: nofree nounwind
declare noundef i32 @__isoc99_scanf(i8* nocapture noundef readonly, ...) local_unnamed_addr #2

; Function Attrs: nofree nounwind
declare noundef i32 @printf(i8* nocapture noundef readonly, ...) local_unnamed_addr #2

; Function Attrs: argmemonly mustprogress nofree nosync nounwind willreturn
declare void @llvm.lifetime.end.p0i8(i64 immarg, i8* nocapture) #1


!llvm.module.flags = !{!0, !1, !2, !3}
!llvm.ident = !{!4}

!0 = !{i32 1, !"wchar_size", i32 4}
!1 = !{i32 7, !"PIC Level", i32 2}
!2 = !{i32 7, !"PIE Level", i32 2}
!3 = !{i32 7, !"uwtable", i32 1}
!4 = !{!"clang version 13.0.0"}
!5 = !{!6, !6, i64 0}
!6 = !{!"long", !7, i64 0}
!7 = !{!"omnipotent char", !8, i64 0}
!8 = !{!"Simple C/C++ TBAA"}
!9 = distinct !{!9, !10}
!10 = !{!"llvm.loop.mustprogress"}
